; Function Attrs: mustprogress nounwind uwtable
define dso_local void @_ZN4llvm11MCAssembler6FinishEv(ptr noundef nonnull align 8 dereferenceable(372) %0) local_unnamed_addr #0 align 2 {
  tail call void @_ZN4llvm11MCAssembler6layoutEv(ptr noundef nonnull align 8 dereferenceable(372) %0)
  %2 = getelementptr inbounds nuw i8, ptr %0, i64 24
  %3 = load ptr, ptr %2, align 8
  %4 = load ptr, ptr %3, align 8
  %5 = getelementptr inbounds i8, ptr %4, i64 48
  %6 = load ptr, ptr %5, align 8
  %7 = tail call noundef i64 %6(ptr noundef nonnull align 8 dereferenceable(104) %3, ptr noundef nonnull align 8 dereferenceable(372) %0) #11
  %8 = getelementptr inbounds nuw i8, ptr %0, i64 32
  store i8 0, ptr %8, align 8
  ret void
}